target datalayout = "e-m:e-p270:32:32-p271:32:32-p272:64:64-i64:64-i128:128-f80:128-n8:16:32:64-S128"
target triple = "x86_64-pc-linux-gnu"

%class.GURL = type { %"class.std::__cxx11::basic_string", i8, %"struct.url::Parsed", %"class.std::unique_ptr" }
%"class.std::__cxx11::basic_string" = type { %"struct.std::__cxx11::basic_string<char>::_Alloc_hider", i64, %union.anon }
%"struct.std::__cxx11::basic_string<char>::_Alloc_hider" = type { ptr }
%union.anon = type { i64, [8 x i8] }
%"struct.url::Parsed" = type { %"struct.url::Component", %"struct.url::Component", %"struct.url::Component", %"struct.url::Component", %"struct.url::Component", %"struct.url::Component", %"struct.url::Component", %"struct.url::Component", ptr }
%"struct.url::Component" = type { i32, i32 }
%"class.std::unique_ptr" = type { %"struct.std::__uniq_ptr_data" }
%"struct.std::__uniq_ptr_data" = type { %"class.std::__uniq_ptr_impl" }
%"class.std::__uniq_ptr_impl" = type { %"class.std::tuple" }
%"class.std::tuple" = type { %"struct.std::_Tuple_impl" }
%"struct.std::_Tuple_impl" = type { %"struct.std::_Head_base.1" }
%"struct.std::_Head_base.1" = type { ptr }

@_ZN4GURLC1Ev = unnamed_addr alias void (ptr), ptr @_ZN4GURLC2Ev
@_ZN4GURLC1ERKS_ = unnamed_addr alias void (ptr, ptr), ptr @_ZN4GURLC2ERKS_
@_ZN4GURLD1Ev = unnamed_addr alias void (ptr), ptr @_ZN4GURLD2Ev

; Function Attrs: mustprogress nounwind uwtable
define available_externally noundef ptr @_ZNKSt7__cxx1112basic_stringIcSt11char_traitsIcESaIcEE7_M_dataEv(ptr noundef nonnull align 8 dereferenceable(32) %0) #1 align 2 {
  %2 = alloca ptr, align 8
  store ptr %0, ptr %2, align 8, !tbaa !25
  %3 = load ptr, ptr %2, align 8
  %4 = getelementptr inbounds nuw %"class.std::__cxx11::basic_string", ptr %3, i32 0, i32 0
  %5 = getelementptr inbounds nuw %"struct.std::__cxx11::basic_string<char>::_Alloc_hider", ptr %4, i32 0, i32 0
  %6 = load ptr, ptr %5, align 8, !tbaa !115
  ret ptr %6
}

; Function Attrs: mustprogress nounwind uwtable
define available_externally noundef ptr @_ZNKSt7__cxx1112basic_stringIcSt11char_traitsIcESaIcEE4dataEv(ptr noundef nonnull align 8 dereferenceable(32) %0) #1 align 2 {
  %2 = alloca ptr, align 8
  store ptr %0, ptr %2, align 8, !tbaa !25
  %3 = load ptr, ptr %2, align 8
  %4 = call noundef ptr @_ZNKSt7__cxx1112basic_stringIcSt11char_traitsIcESaIcEE7_M_dataEv(ptr noundef nonnull align 8 dereferenceable(32) %3)
  ret ptr %4
}

; Function Attrs: mustprogress uwtable
define available_externally void @_ZNSt7__cxx1112basic_stringIcSt11char_traitsIcESaIcEE6resizeEm(ptr noundef nonnull align 8 dereferenceable(32) %0, i64 noundef %1) #0 align 2 {
  %3 = alloca ptr, align 8
  %4 = alloca i64, align 8
  store ptr %0, ptr %3, align 8, !tbaa !25
  store i64 %1, ptr %4, align 8, !tbaa !35
  %5 = load ptr, ptr %3, align 8
  %6 = load i64, ptr %4, align 8, !tbaa !35
  call void @_ZNSt7__cxx1112basic_stringIcSt11char_traitsIcESaIcEE6resizeEmc(ptr noundef nonnull align 8 dereferenceable(32) %5, i64 noundef %6, i8 noundef signext 0)
  ret void
}

; Function Attrs: mustprogress nounwind uwtable
define available_externally noundef nonnull align 1 dereferenceable(1) ptr @_ZNSt7__cxx1112basic_stringIcSt11char_traitsIcESaIcEEixEm(ptr noundef nonnull align 8 dereferenceable(32) %0, i64 noundef %1) #1 align 2 {
  %3 = alloca ptr, align 8
  %4 = alloca i64, align 8
  store ptr %0, ptr %3, align 8, !tbaa !25
  store i64 %1, ptr %4, align 8, !tbaa !35
  %5 = load ptr, ptr %3, align 8
  br label %6

6:                                                ; preds = %2
  br label %7

7:                                                ; preds = %6
  %8 = call noundef ptr @_ZNKSt7__cxx1112basic_stringIcSt11char_traitsIcESaIcEE7_M_dataEv(ptr noundef nonnull align 8 dereferenceable(32) %5)
  %9 = load i64, ptr %4, align 8, !tbaa !35
  %10 = getelementptr inbounds nuw i8, ptr %8, i64 %9
  ret ptr %10
}

; Function Attrs: mustprogress nounwind uwtable
define linkonce_odr void @_ZN3url9Component5resetEv(ptr noundef nonnull align 4 dereferenceable(8) %0) #1 comdat align 2 {
  %2 = alloca ptr, align 8
  store ptr %0, ptr %2, align 8, !tbaa !76
  %3 = load ptr, ptr %2, align 8
  %4 = getelementptr inbounds nuw %"struct.url::Component", ptr %3, i32 0, i32 0
  store i32 0, ptr %4, align 4, !tbaa !78
  %5 = getelementptr inbounds nuw %"struct.url::Component", ptr %3, i32 0, i32 1
  store i32 -1, ptr %5, align 4, !tbaa !79
  ret void
}

; Function Attrs: mustprogress uwtable
define noundef zeroext i1 @_ZNK4GURL10IsStandardEv(ptr noundef nonnull align 8 dereferenceable(120) %0) #0 align 2 {
  %2 = alloca ptr, align 8
  store ptr %0, ptr %2, align 8, !tbaa !3
  %3 = load ptr, ptr %2, align 8
  %4 = getelementptr inbounds nuw %class.GURL, ptr %3, i32 0, i32 0
  %5 = call noundef ptr @_ZNKSt7__cxx1112basic_stringIcSt11char_traitsIcESaIcEE4dataEv(ptr noundef nonnull align 8 dereferenceable(32) %4) #15
  %6 = getelementptr inbounds nuw %class.GURL, ptr %3, i32 0, i32 2
  %7 = getelementptr inbounds nuw %"struct.url::Parsed", ptr %6, i32 0, i32 0
  %8 = call noundef zeroext i1 @_ZN3url10IsStandardEPKcRKNS_9ComponentE(ptr noundef %5, ptr noundef nonnull align 4 dereferenceable(8) %7)
  ret i1 %8
}

; Function Attrs: mustprogress uwtable
define void @_ZNK4GURL16GetWithEmptyPathEv(ptr dead_on_unwind noalias writable sret(%class.GURL) align 8 %0, ptr noundef nonnull align 8 dereferenceable(120) %1) #0 align 2 personality ptr @__gxx_personality_v0 {
  %3 = alloca ptr, align 8
  %4 = alloca ptr, align 8
  %5 = alloca i1, align 1
  %6 = alloca i32, align 4
  %7 = alloca ptr, align 8
  %8 = alloca i32, align 4
  store ptr %0, ptr %3, align 8
  store ptr %1, ptr %4, align 8, !tbaa !3
  %9 = load ptr, ptr %4, align 8
  %10 = getelementptr inbounds nuw %class.GURL, ptr %9, i32 0, i32 1
  %11 = load i8, ptr %10, align 8, !tbaa !8, !range !29, !noundef !30
  %12 = trunc i8 %11 to i1
  br i1 %12, label %13, label %15

13:                                               ; preds = %2
  %14 = call noundef zeroext i1 @_ZNK4GURL10IsStandardEv(ptr noundef nonnull align 8 dereferenceable(120) %9)
  br i1 %14, label %16, label %15

15:                                               ; preds = %13, %2
  call void @_ZN4GURLC1Ev(ptr noundef nonnull align 8 dereferenceable(120) %0)
  br label %57

16:                                               ; preds = %13
  store i1 false, ptr %5, align 1
  call void @_ZN4GURLC1ERKS_(ptr noundef nonnull align 8 dereferenceable(120) %0, ptr noundef nonnull align 8 dereferenceable(120) %9)
  %17 = getelementptr inbounds nuw %class.GURL, ptr %9, i32 0, i32 2
  %18 = getelementptr inbounds nuw %"struct.url::Parsed", ptr %17, i32 0, i32 5
  %19 = getelementptr inbounds nuw %"struct.url::Component", ptr %18, i32 0, i32 1
  %20 = load i32, ptr %19, align 4, !tbaa !74
  %21 = icmp eq i32 %20, 0
  br i1 %21, label %22, label %23

22:                                               ; preds = %16
  store i1 true, ptr %5, align 1
  store i32 1, ptr %6, align 4
  br label %53

23:                                               ; preds = %16
  %24 = getelementptr inbounds nuw %class.GURL, ptr %0, i32 0, i32 2
  %25 = getelementptr inbounds nuw %"struct.url::Parsed", ptr %24, i32 0, i32 6
  invoke void @_ZN3url9Component5resetEv(ptr noundef nonnull align 4 dereferenceable(8) %25)
          to label %26 unwind label %49

26:                                               ; preds = %23
  %27 = getelementptr inbounds nuw %class.GURL, ptr %0, i32 0, i32 2
  %28 = getelementptr inbounds nuw %"struct.url::Parsed", ptr %27, i32 0, i32 7
  invoke void @_ZN3url9Component5resetEv(ptr noundef nonnull align 4 dereferenceable(8) %28)
          to label %29 unwind label %49

29:                                               ; preds = %26
  %30 = getelementptr inbounds nuw %class.GURL, ptr %0, i32 0, i32 0
  %31 = getelementptr inbounds nuw %class.GURL, ptr %0, i32 0, i32 2
  %32 = getelementptr inbounds nuw %"struct.url::Parsed", ptr %31, i32 0, i32 5
  %33 = getelementptr inbounds nuw %"struct.url::Component", ptr %32, i32 0, i32 0
  %34 = load i32, ptr %33, align 8, !tbaa !75
  %35 = sext i32 %34 to i64
  %36 = invoke noundef nonnull align 1 dereferenceable(1) ptr @_ZNSt7__cxx1112basic_stringIcSt11char_traitsIcESaIcEEixEm(ptr noundef nonnull align 8 dereferenceable(32) %30, i64 noundef %35)
          to label %37 unwind label %49

37:                                               ; preds = %29
  store i8 47, ptr %36, align 1, !tbaa !50
  %38 = getelementptr inbounds nuw %class.GURL, ptr %0, i32 0, i32 2
  %39 = getelementptr inbounds nuw %"struct.url::Parsed", ptr %38, i32 0, i32 5
  %40 = getelementptr inbounds nuw %"struct.url::Component", ptr %39, i32 0, i32 1
  store i32 1, ptr %40, align 4, !tbaa !74
  %41 = getelementptr inbounds nuw %class.GURL, ptr %0, i32 0, i32 0
  %42 = getelementptr inbounds nuw %class.GURL, ptr %0, i32 0, i32 2
  %43 = getelementptr inbounds nuw %"struct.url::Parsed", ptr %42, i32 0, i32 5
  %44 = getelementptr inbounds nuw %"struct.url::Component", ptr %43, i32 0, i32 0
  %45 = load i32, ptr %44, align 8, !tbaa !75
  %46 = add nsw i32 %45, 1
  %47 = sext i32 %46 to i64
  invoke void @_ZNSt7__cxx1112basic_stringIcSt11char_traitsIcESaIcEE6resizeEm(ptr noundef nonnull align 8 dereferenceable(32) %41, i64 noundef %47)
          to label %48 unwind label %49

48:                                               ; preds = %37
  store i1 true, ptr %5, align 1
  store i32 1, ptr %6, align 4
  br label %53

49:                                               ; preds = %37, %29, %26, %23
  %50 = landingpad { ptr, i32 }
          cleanup
  %51 = extractvalue { ptr, i32 } %50, 0
  store ptr %51, ptr %7, align 8
  %52 = extractvalue { ptr, i32 } %50, 1
  store i32 %52, ptr %8, align 4
  call void @_ZN4GURLD1Ev(ptr noundef nonnull align 8 dereferenceable(120) %0) #15
  br label %58

53:                                               ; preds = %48, %22
  %54 = load i1, ptr %5, align 1
  br i1 %54, label %56, label %55

55:                                               ; preds = %53
  call void @_ZN4GURLD1Ev(ptr noundef nonnull align 8 dereferenceable(120) %0) #15
  br label %56

56:                                               ; preds = %55, %53
  br label %57

57:                                               ; preds = %56, %15
  ret void

58:                                               ; preds = %49
  %59 = load ptr, ptr %7, align 8
  %60 = load i32, ptr %8, align 4
  %61 = insertvalue { ptr, i32 } poison, ptr %59, 0
  %62 = insertvalue { ptr, i32 } %61, i32 %60, 1
  resume { ptr, i32 } %62
}