; Function Attrs: mustprogress uwtable
define void @_ZNK4GURL16GetWithEmptyPathEv(ptr dead_on_unwind noalias writable sret(%class.GURL) align 8 %0, ptr noundef nonnull align 8 dereferenceable(120) %1) local_unnamed_addr #0 align 2 personality ptr @__gxx_personality_v0 {
  %3 = getelementptr inbounds nuw i8, ptr %1, i64 32
  %4 = load i8, ptr %3, align 8, !tbaa !13, !range !30, !noundef !31
  %5 = trunc nuw i8 %4 to i1
  br i1 %5, label %6, label %10

6:                                                ; preds = %2
  %7 = load ptr, ptr %1, align 8, !tbaa !28
  %8 = getelementptr inbounds nuw i8, ptr %1, i64 40
  %9 = tail call noundef zeroext i1 @_ZN3url10IsStandardEPKcRKNS_9ComponentE(ptr noundef %7, ptr noundef nonnull align 4 dereferenceable(8) %8)
  br i1 %9, label %11, label %10

10:                                               ; preds = %6, %2
  tail call void @_ZN4GURLC1Ev(ptr noundef nonnull align 8 dereferenceable(120) %0)
  br label %_ZNSt7__cxx1112basic_stringIcSt11char_traitsIcESaIcEE6resizeEm.exit

11:                                               ; preds = %6
  tail call void @_ZN4GURLC1ERKS_(ptr noundef nonnull align 8 dereferenceable(120) %0, ptr noundef nonnull align 8 dereferenceable(120) %1)
  %12 = getelementptr inbounds nuw i8, ptr %1, i64 84
  %13 = load i32, ptr %12, align 4, !tbaa !51
  %14 = icmp eq i32 %13, 0
  br i1 %14, label %_ZNSt7__cxx1112basic_stringIcSt11char_traitsIcESaIcEE6resizeEm.exit, label %15

15:                                               ; preds = %11
  %16 = getelementptr inbounds nuw i8, ptr %0, i64 88
  store i32 0, ptr %16, align 8, !tbaa !52
  %17 = getelementptr inbounds nuw i8, ptr %0, i64 92
  store i32 -1, ptr %17, align 4, !tbaa !53
  %18 = getelementptr inbounds nuw i8, ptr %0, i64 96
  store i32 0, ptr %18, align 8, !tbaa !52
  %19 = getelementptr inbounds nuw i8, ptr %0, i64 100
  store i32 -1, ptr %19, align 4, !tbaa !53
  %20 = getelementptr inbounds nuw i8, ptr %0, i64 80
  %21 = load i32, ptr %20, align 8, !tbaa !54
  %22 = sext i32 %21 to i64
  %23 = load ptr, ptr %0, align 8, !tbaa !28
  %24 = getelementptr inbounds nuw i8, ptr %23, i64 %22
  store i8 47, ptr %24, align 1, !tbaa !12
  %25 = getelementptr inbounds nuw i8, ptr %0, i64 84
  store i32 1, ptr %25, align 4, !tbaa !51
  %26 = load i32, ptr %20, align 8, !tbaa !54
  %27 = add nsw i32 %26, 1
  %28 = sext i32 %27 to i64
  invoke void @_ZNSt7__cxx1112basic_stringIcSt11char_traitsIcESaIcEE6resizeEmc(ptr noundef nonnull align 8 dereferenceable(32) %0, i64 noundef %28, i8 noundef signext 0)
          to label %_ZNSt7__cxx1112basic_stringIcSt11char_traitsIcESaIcEE6resizeEm.exit unwind label %29

29:                                               ; preds = %15
  %30 = landingpad { ptr, i32 }
          cleanup
  tail call void @_ZN4GURLD1Ev(ptr noundef nonnull align 8 dereferenceable(120) %0) #17
  resume { ptr, i32 } %30

_ZNSt7__cxx1112basic_stringIcSt11char_traitsIcESaIcEE6resizeEm.exit: ; preds = %15, %11, %10
  ret void
}